target datalayout = "e-m:e-p270:32:32-p271:32:32-p272:64:64-i64:64-i128:128-f80:128-n8:16:32:64-S128"
target triple = "x86_64-pc-linux-gnu"

%struct.Res6_Man_t_ = type { i32, i32, i32, i32, i32, i32, %struct.Vec_Wrd_t_, %struct.Vec_Wrd_t_, ptr, ptr, %struct.Vec_Int_t_, %struct.Vec_Int_t_, %struct.Vec_Int_t_, %struct.Vec_Int_t_ }
%struct.Vec_Wrd_t_ = type { i32, i32, ptr }
%struct.Vec_Int_t_ = type { i32, i32, ptr }

@.str.6 = private unnamed_addr constant [3 x i8] c"wb\00", align 1
@.str.7 = private unnamed_addr constant [31 x i8] c"Cannot open output file \22%s\22.\0A\00", align 1
@.str.8 = private unnamed_addr constant [19 x i8] c"resyn %d %d %d %d\0A\00", align 1

; Function Attrs: inlinehint nounwind uwtable
define internal i32 @Abc_TtGetBit(ptr noundef %0, i32 noundef %1) #2 {
  %3 = alloca ptr, align 8
  %4 = alloca i32, align 4
  store ptr %0, ptr %3, align 8, !tbaa !28
  store i32 %1, ptr %4, align 4, !tbaa !19
  %5 = load ptr, ptr %3, align 8, !tbaa !28
  %6 = load i32, ptr %4, align 4, !tbaa !19
  %7 = ashr i32 %6, 6
  %8 = sext i32 %7 to i64
  %9 = getelementptr inbounds i64, ptr %5, i64 %8
  %10 = load i64, ptr %9, align 8, !tbaa !48
  %11 = load i32, ptr %4, align 4, !tbaa !19
  %12 = and i32 %11, 63
  %13 = zext i32 %12 to i64
  %14 = lshr i64 %10, %13
  %15 = trunc i64 %14 to i32
  %16 = and i32 %15, 1
  ret i32 %16
}

; Function Attrs: nounwind uwtable
define void @Res6_ManWrite(ptr noundef %0, ptr noundef %1) #0 {
  %3 = alloca ptr, align 8
  %4 = alloca ptr, align 8
  %5 = alloca ptr, align 8
  %6 = alloca i32, align 4
  %7 = alloca i32, align 4
  store ptr %0, ptr %3, align 8, !tbaa !3
  store ptr %1, ptr %4, align 8, !tbaa !17
  call void @llvm.lifetime.start.p0(i64 8, ptr %5) #11
  %8 = load ptr, ptr %3, align 8, !tbaa !3
  %9 = call noalias ptr @fopen(ptr noundef %8, ptr noundef @.str.6)
  store ptr %9, ptr %5, align 8, !tbaa !58
  %10 = load ptr, ptr %5, align 8, !tbaa !58
  %11 = icmp eq ptr %10, null
  br i1 %11, label %12, label %15

12:                                               ; preds = %2
  %13 = load ptr, ptr %3, align 8, !tbaa !3
  %14 = call i32 (ptr, ...) @printf(ptr noundef @.str.7, ptr noundef %13)
  br label %133

15:                                               ; preds = %2
  call void @llvm.lifetime.start.p0(i64 4, ptr %6) #11
  call void @llvm.lifetime.start.p0(i64 4, ptr %7) #11
  %16 = load ptr, ptr %5, align 8, !tbaa !58
  %17 = load ptr, ptr %4, align 8, !tbaa !17
  %18 = getelementptr inbounds nuw %struct.Res6_Man_t_, ptr %17, i32 0, i32 0
  %19 = load i32, ptr %18, align 8, !tbaa !42
  %20 = load ptr, ptr %4, align 8, !tbaa !17
  %21 = getelementptr inbounds nuw %struct.Res6_Man_t_, ptr %20, i32 0, i32 1
  %22 = load i32, ptr %21, align 4, !tbaa !20
  %23 = load ptr, ptr %4, align 8, !tbaa !17
  %24 = getelementptr inbounds nuw %struct.Res6_Man_t_, ptr %23, i32 0, i32 0
  %25 = load i32, ptr %24, align 8, !tbaa !42
  %26 = sub nsw i32 %22, %25
  %27 = sub nsw i32 %26, 1
  %28 = load ptr, ptr %4, align 8, !tbaa !17
  %29 = getelementptr inbounds nuw %struct.Res6_Man_t_, ptr %28, i32 0, i32 3
  %30 = load i32, ptr %29, align 4, !tbaa !34
  %31 = load ptr, ptr %4, align 8, !tbaa !17
  %32 = getelementptr inbounds nuw %struct.Res6_Man_t_, ptr %31, i32 0, i32 4
  %33 = load i32, ptr %32, align 8, !tbaa !44
  %34 = call i32 (ptr, ptr, ...) @fprintf(ptr noundef %16, ptr noundef @.str.8, i32 noundef %19, i32 noundef %27, i32 noundef %30, i32 noundef %33) #11
  store i32 1, ptr %6, align 4, !tbaa !19
  br label %35

35:                                               ; preds = %88, %15
  %36 = load i32, ptr %6, align 4, !tbaa !19
  %37 = load ptr, ptr %4, align 8, !tbaa !17
  %38 = getelementptr inbounds nuw %struct.Res6_Man_t_, ptr %37, i32 0, i32 1
  %39 = load i32, ptr %38, align 4, !tbaa !20
  %40 = icmp slt i32 %36, %39
  br i1 %40, label %41, label %93

41:                                               ; preds = %35
  store i32 0, ptr %7, align 4, !tbaa !19
  br label %42

42:                                               ; preds = %84, %41
  %43 = load i32, ptr %7, align 4, !tbaa !19
  %44 = load ptr, ptr %4, align 8, !tbaa !17
  %45 = getelementptr inbounds nuw %struct.Res6_Man_t_, ptr %44, i32 0, i32 4
  %46 = load i32, ptr %45, align 8, !tbaa !44
  %47 = icmp slt i32 %43, %46
  br i1 %47, label %48, label %87

48:                                               ; preds = %42
  %49 = load ptr, ptr %4, align 8, !tbaa !17
  %50 = getelementptr inbounds nuw %struct.Res6_Man_t_, ptr %49, i32 0, i32 8
  %51 = load ptr, ptr %50, align 8, !tbaa !27
  %52 = load i32, ptr %6, align 4, !tbaa !19
  %53 = mul nsw i32 2, %52
  %54 = add nsw i32 %53, 1
  %55 = sext i32 %54 to i64
  %56 = getelementptr inbounds ptr, ptr %51, i64 %55
  %57 = load ptr, ptr %56, align 8, !tbaa !28
  %58 = load i32, ptr %7, align 4, !tbaa !19
  %59 = call i32 @Abc_TtGetBit(ptr noundef %57, i32 noundef %58)
  %60 = icmp ne i32 %59, 0
  br i1 %60, label %61, label %64

61:                                               ; preds = %48
  %62 = load ptr, ptr %5, align 8, !tbaa !58
  %63 = call i32 @fputc(i32 noundef 48, ptr noundef %62)
  br label %83

64:                                               ; preds = %48
  %65 = load ptr, ptr %4, align 8, !tbaa !17
  %66 = getelementptr inbounds nuw %struct.Res6_Man_t_, ptr %65, i32 0, i32 8
  %67 = load ptr, ptr %66, align 8, !tbaa !27
  %68 = load i32, ptr %6, align 4, !tbaa !19
  %69 = mul nsw i32 2, %68
  %70 = sext i32 %69 to i64
  %71 = getelementptr inbounds ptr, ptr %67, i64 %70
  %72 = load ptr, ptr %71, align 8, !tbaa !28
  %73 = load i32, ptr %7, align 4, !tbaa !19
  %74 = call i32 @Abc_TtGetBit(ptr noundef %72, i32 noundef %73)
  %75 = icmp ne i32 %74, 0
  br i1 %75, label %76, label %79

76:                                               ; preds = %64
  %77 = load ptr, ptr %5, align 8, !tbaa !58
  %78 = call i32 @fputc(i32 noundef 49, ptr noundef %77)
  br label %82

79:                                               ; preds = %64
  %80 = load ptr, ptr %5, align 8, !tbaa !58
  %81 = call i32 @fputc(i32 noundef 45, ptr noundef %80)
  br label %82

82:                                               ; preds = %79, %76
  br label %83

83:                                               ; preds = %82, %61
  br label %84

84:                                               ; preds = %83
  %85 = load i32, ptr %7, align 4, !tbaa !19
  %86 = add nsw i32 %85, 1
  store i32 %86, ptr %7, align 4, !tbaa !19
  br label %42, !llvm.loop !65

87:                                               ; preds = %42
  br label %88

88:                                               ; preds = %87
  %89 = load i32, ptr %6, align 4, !tbaa !19
  %90 = add nsw i32 %89, 1
  store i32 %90, ptr %6, align 4, !tbaa !19
  %91 = load ptr, ptr %5, align 8, !tbaa !58
  %92 = call i32 @fputc(i32 noundef 10, ptr noundef %91)
  br label %35, !llvm.loop !66

93:                                               ; preds = %35
  store i32 0, ptr %6, align 4, !tbaa !19
  br label %94

94:                                               ; preds = %125, %93
  %95 = load i32, ptr %6, align 4, !tbaa !19
  %96 = load ptr, ptr %4, align 8, !tbaa !17
  %97 = getelementptr inbounds nuw %struct.Res6_Man_t_, ptr %96, i32 0, i32 3
  %98 = load i32, ptr %97, align 4, !tbaa !34
  %99 = shl i32 1, %98
  %100 = icmp slt i32 %95, %99
  br i1 %100, label %101, label %130

101:                                              ; preds = %94
  store i32 0, ptr %7, align 4, !tbaa !19
  br label %102

102:                                              ; preds = %121, %101
  %103 = load i32, ptr %7, align 4, !tbaa !19
  %104 = load ptr, ptr %4, align 8, !tbaa !17
  %105 = getelementptr inbounds nuw %struct.Res6_Man_t_, ptr %104, i32 0, i32 4
  %106 = load i32, ptr %105, align 8, !tbaa !44
  %107 = icmp slt i32 %103, %106
  br i1 %107, label %108, label %124

108:                                              ; preds = %102
  %109 = load ptr, ptr %4, align 8, !tbaa !17
  %110 = getelementptr inbounds nuw %struct.Res6_Man_t_, ptr %109, i32 0, i32 9
  %111 = load ptr, ptr %110, align 8, !tbaa !35
  %112 = load i32, ptr %6, align 4, !tbaa !19
  %113 = sext i32 %112 to i64
  %114 = getelementptr inbounds ptr, ptr %111, i64 %113
  %115 = load ptr, ptr %114, align 8, !tbaa !28
  %116 = load i32, ptr %7, align 4, !tbaa !19
  %117 = call i32 @Abc_TtGetBit(ptr noundef %115, i32 noundef %116)
  %118 = add nsw i32 48, %117
  %119 = load ptr, ptr %5, align 8, !tbaa !58
  %120 = call i32 @fputc(i32 noundef %118, ptr noundef %119)
  br label %121

121:                                              ; preds = %108
  %122 = load i32, ptr %7, align 4, !tbaa !19
  %123 = add nsw i32 %122, 1
  store i32 %123, ptr %7, align 4, !tbaa !19
  br label %102, !llvm.loop !67

124:                                              ; preds = %102
  br label %125

125:                                              ; preds = %124
  %126 = load i32, ptr %6, align 4, !tbaa !19
  %127 = add nsw i32 %126, 1
  store i32 %127, ptr %6, align 4, !tbaa !19
  %128 = load ptr, ptr %5, align 8, !tbaa !58
  %129 = call i32 @fputc(i32 noundef 10, ptr noundef %128)
  br label %94, !llvm.loop !68

130:                                              ; preds = %94
  %131 = load ptr, ptr %5, align 8, !tbaa !58
  %132 = call i32 @fclose(ptr noundef %131)
  call void @llvm.lifetime.end.p0(i64 4, ptr %7) #11
  call void @llvm.lifetime.end.p0(i64 4, ptr %6) #11
  br label %133

133:                                              ; preds = %130, %12
  call void @llvm.lifetime.end.p0(i64 8, ptr %5) #11
  ret void
}