; Function Attrs: nofree nounwind uwtable
define void @Res6_ManWrite(ptr noundef %0, ptr noundef readonly captures(none) %1) local_unnamed_addr #7 {
  %3 = tail call noalias ptr @fopen(ptr noundef %0, ptr noundef nonnull @.str.6)
  %4 = icmp eq ptr %3, null
  br i1 %4, label %5, label %7

5:                                                ; preds = %2
  %6 = tail call i32 (ptr, ...) @printf(ptr noundef nonnull dereferenceable(1) @.str.7, ptr noundef %0)
  br label %79

7:                                                ; preds = %2
  %8 = load i32, ptr %1, align 8, !tbaa !53
  %9 = getelementptr inbounds nuw i8, ptr %1, i64 4
  %10 = load i32, ptr %9, align 4, !tbaa !37
  %11 = xor i32 %8, -1
  %12 = add i32 %10, %11
  %13 = getelementptr inbounds nuw i8, ptr %1, i64 12
  %14 = load i32, ptr %13, align 4, !tbaa !48
  %15 = getelementptr inbounds nuw i8, ptr %1, i64 16
  %16 = load i32, ptr %15, align 8, !tbaa !55
  %17 = tail call i32 (ptr, ptr, ...) @fprintf(ptr noundef nonnull %3, ptr noundef nonnull @.str.8, i32 noundef %8, i32 noundef %12, i32 noundef %14, i32 noundef %16) #21
  %18 = load i32, ptr %9, align 4, !tbaa !37
  %19 = icmp sgt i32 %18, 1
  br i1 %19, label %.preheader41.lr.ph, label %.preheader40

.preheader41.lr.ph:                               ; preds = %7
  %20 = getelementptr inbounds nuw i8, ptr %1, i64 56
  br label %.preheader41

.preheader41:                                     ; preds = %.preheader41.lr.ph, %._crit_edge
  %indvars.iv = phi i64 [ 1, %.preheader41.lr.ph ], [ %indvars.iv.next, %._crit_edge ]
  %21 = load i32, ptr %15, align 8, !tbaa !55
  %22 = icmp sgt i32 %21, 0
  br i1 %22, label %.lr.ph, label %._crit_edge

.lr.ph:                                           ; preds = %.preheader41
  %23 = shl nuw nsw i64 %indvars.iv, 1
  %24 = or disjoint i64 %23, 1
  br label %27

.preheader40:                                     ; preds = %._crit_edge, %7
  %25 = load i32, ptr %13, align 4, !tbaa !48
  %.not49 = icmp eq i32 %25, 31
  br i1 %.not49, label %._crit_edge48, label %.preheader.lr.ph

.preheader.lr.ph:                                 ; preds = %.preheader40
  %26 = getelementptr inbounds nuw i8, ptr %1, i64 64
  br label %.preheader

27:                                               ; preds = %.lr.ph, %45
  %.042 = phi i32 [ 0, %.lr.ph ], [ %47, %45 ]
  %28 = load ptr, ptr %20, align 8, !tbaa !40
  %29 = getelementptr inbounds nuw ptr, ptr %28, i64 %24
  %30 = load ptr, ptr %29, align 8, !tbaa !41
  %31 = lshr i32 %.042, 6
  %32 = zext nneg i32 %31 to i64
  %33 = getelementptr inbounds nuw i64, ptr %30, i64 %32
  %34 = load i64, ptr %33, align 8, !tbaa !42
  %35 = and i32 %.042, 63
  %36 = zext nneg i32 %35 to i64
  %37 = shl nuw i64 1, %36
  %38 = and i64 %34, %37
  %.not = icmp eq i64 %38, 0
  br i1 %.not, label %39, label %45

39:                                               ; preds = %27
  %40 = getelementptr inbounds nuw ptr, ptr %28, i64 %23
  %41 = load ptr, ptr %40, align 8, !tbaa !41
  %42 = getelementptr inbounds nuw i64, ptr %41, i64 %32
  %43 = load i64, ptr %42, align 8, !tbaa !42
  %44 = and i64 %43, %37
  %.not39 = icmp eq i64 %44, 0
  %. = select i1 %.not39, i32 45, i32 49
  br label %45

45:                                               ; preds = %39, %27
  %.sink = phi i32 [ 48, %27 ], [ %., %39 ]
  %46 = tail call i32 @fputc(i32 noundef %.sink, ptr noundef nonnull %3)
  %47 = add nuw nsw i32 %.042, 1
  %48 = load i32, ptr %15, align 8, !tbaa !55
  %49 = icmp slt i32 %47, %48
  br i1 %49, label %27, label %._crit_edge, !llvm.loop !63

._crit_edge:                                      ; preds = %45, %.preheader41
  %indvars.iv.next = add nuw nsw i64 %indvars.iv, 1
  %50 = tail call i32 @fputc(i32 noundef 10, ptr noundef nonnull %3)
  %51 = load i32, ptr %9, align 4, !tbaa !37
  %52 = sext i32 %51 to i64
  %53 = icmp slt i64 %indvars.iv.next, %52
  br i1 %53, label %.preheader41, label %.preheader40, !llvm.loop !64

.preheader:                                       ; preds = %.preheader.lr.ph, %._crit_edge46
  %indvars.iv51 = phi i64 [ 0, %.preheader.lr.ph ], [ %indvars.iv.next52, %._crit_edge46 ]
  %54 = load i32, ptr %15, align 8, !tbaa !55
  %55 = icmp sgt i32 %54, 0
  br i1 %55, label %.lr.ph45, label %._crit_edge46

.lr.ph45:                                         ; preds = %.preheader, %.lr.ph45
  %.144 = phi i32 [ %70, %.lr.ph45 ], [ 0, %.preheader ]
  %56 = load ptr, ptr %26, align 8, !tbaa !49
  %57 = getelementptr inbounds nuw ptr, ptr %56, i64 %indvars.iv51
  %58 = load ptr, ptr %57, align 8, !tbaa !41
  %59 = lshr i32 %.144, 6
  %60 = zext nneg i32 %59 to i64
  %61 = getelementptr inbounds nuw i64, ptr %58, i64 %60
  %62 = load i64, ptr %61, align 8, !tbaa !42
  %63 = and i32 %.144, 63
  %64 = zext nneg i32 %63 to i64
  %65 = lshr i64 %62, %64
  %66 = trunc i64 %65 to i32
  %67 = and i32 %66, 1
  %68 = or disjoint i32 %67, 48
  %69 = tail call i32 @fputc(i32 noundef %68, ptr noundef nonnull %3)
  %70 = add nuw nsw i32 %.144, 1
  %71 = load i32, ptr %15, align 8, !tbaa !55
  %72 = icmp slt i32 %70, %71
  br i1 %72, label %.lr.ph45, label %._crit_edge46, !llvm.loop !65

._crit_edge46:                                    ; preds = %.lr.ph45, %.preheader
  %indvars.iv.next52 = add nuw nsw i64 %indvars.iv51, 1
  %73 = tail call i32 @fputc(i32 noundef 10, ptr noundef nonnull %3)
  %74 = load i32, ptr %13, align 4, !tbaa !48
  %75 = shl nuw i32 1, %74
  %76 = sext i32 %75 to i64
  %77 = icmp slt i64 %indvars.iv.next52, %76
  br i1 %77, label %.preheader, label %._crit_edge48, !llvm.loop !66

._crit_edge48:                                    ; preds = %._crit_edge46, %.preheader40
  %78 = tail call i32 @fclose(ptr noundef nonnull %3)
  br label %79

79:                                               ; preds = %._crit_edge48, %5
  ret void
}